target datalayout = "e-m:e-p270:32:32-p271:32:32-p272:64:64-i64:64-i128:128-f80:128-n8:16:32:64-S128"
target triple = "x86_64-pc-linux-gnu"

%struct.WebPChunk = type { i32, i32, %struct.WebPData, ptr }
%struct.WebPData = type { ptr, i64 }
%struct.WebPMuxImage = type { ptr, ptr, ptr, ptr, i32, i32, i32, i32, ptr }

; Function Attrs: inlinehint nounwind uwtable
define internal void @WebPDataInit(ptr noundef %0) #3 {
  %2 = alloca ptr, align 8
  store ptr %0, ptr %2, align 8, !tbaa !16
  %3 = load ptr, ptr %2, align 8, !tbaa !16
  %4 = icmp ne ptr %3, null
  br i1 %4, label %5, label %7

5:                                                ; preds = %1
  %6 = load ptr, ptr %2, align 8, !tbaa !16
  call void @llvm.memset.p0.i64(ptr align 8 %6, i8 0, i64 16, i1 false)
  br label %7

7:                                                ; preds = %5, %1
  ret void
}

; Function Attrs: nounwind uwtable
define hidden void @ChunkInit(ptr noundef %0) #0 {
  %2 = alloca ptr, align 8
  store ptr %0, ptr %2, align 8, !tbaa !3
  %3 = load ptr, ptr %2, align 8, !tbaa !3
  call void @llvm.memset.p0.i64(ptr align 8 %3, i8 0, i64 32, i1 false)
  %4 = load ptr, ptr %2, align 8, !tbaa !3
  %5 = getelementptr inbounds nuw %struct.WebPChunk, ptr %4, i32 0, i32 0
  store i32 0, ptr %5, align 8, !tbaa !8
  ret void
}

; Function Attrs: inlinehint nounwind uwtable
define internal void @WebPDataClear(ptr noundef %0) #3 {
  %2 = alloca ptr, align 8
  store ptr %0, ptr %2, align 8, !tbaa !16
  %3 = load ptr, ptr %2, align 8, !tbaa !16
  %4 = icmp ne ptr %3, null
  br i1 %4, label %5, label %10

5:                                                ; preds = %1
  %6 = load ptr, ptr %2, align 8, !tbaa !16
  %7 = getelementptr inbounds nuw %struct.WebPData, ptr %6, i32 0, i32 0
  %8 = load ptr, ptr %7, align 8, !tbaa !18
  call void @WebPFree(ptr noundef %8)
  %9 = load ptr, ptr %2, align 8, !tbaa !16
  call void @WebPDataInit(ptr noundef %9)
  br label %10

10:                                               ; preds = %5, %1
  ret void
}

; Function Attrs: nounwind uwtable
define hidden ptr @ChunkRelease(ptr noundef %0) #0 {
  %2 = alloca ptr, align 8
  %3 = alloca ptr, align 8
  %4 = alloca ptr, align 8
  %5 = alloca i32, align 4
  store ptr %0, ptr %3, align 8, !tbaa !3
  call void @llvm.lifetime.start.p0(i64 8, ptr %4) #6
  %6 = load ptr, ptr %3, align 8, !tbaa !3
  %7 = icmp eq ptr %6, null
  br i1 %7, label %8, label %9

8:                                                ; preds = %1
  store ptr null, ptr %2, align 8
  store i32 1, ptr %5, align 4
  br label %23

9:                                                ; preds = %1
  %10 = load ptr, ptr %3, align 8, !tbaa !3
  %11 = getelementptr inbounds nuw %struct.WebPChunk, ptr %10, i32 0, i32 1
  %12 = load i32, ptr %11, align 4, !tbaa !14
  %13 = icmp ne i32 %12, 0
  br i1 %13, label %14, label %17

14:                                               ; preds = %9
  %15 = load ptr, ptr %3, align 8, !tbaa !3
  %16 = getelementptr inbounds nuw %struct.WebPChunk, ptr %15, i32 0, i32 2
  call void @WebPDataClear(ptr noundef %16)
  br label %17

17:                                               ; preds = %14, %9
  %18 = load ptr, ptr %3, align 8, !tbaa !3
  %19 = getelementptr inbounds nuw %struct.WebPChunk, ptr %18, i32 0, i32 3
  %20 = load ptr, ptr %19, align 8, !tbaa !15
  store ptr %20, ptr %4, align 8, !tbaa !3
  %21 = load ptr, ptr %3, align 8, !tbaa !3
  call void @ChunkInit(ptr noundef %21)
  %22 = load ptr, ptr %4, align 8, !tbaa !3
  store ptr %22, ptr %2, align 8
  store i32 1, ptr %5, align 4
  br label %23

23:                                               ; preds = %17, %8
  call void @llvm.lifetime.end.p0(i64 8, ptr %4) #6
  %24 = load ptr, ptr %2, align 8
  ret ptr %24
}

; Function Attrs: nounwind uwtable
define hidden ptr @ChunkDelete(ptr noundef %0) #0 {
  %2 = alloca ptr, align 8
  %3 = alloca ptr, align 8
  store ptr %0, ptr %2, align 8, !tbaa !3
  call void @llvm.lifetime.start.p0(i64 8, ptr %3) #6
  %4 = load ptr, ptr %2, align 8, !tbaa !3
  %5 = call ptr @ChunkRelease(ptr noundef %4)
  store ptr %5, ptr %3, align 8, !tbaa !3
  %6 = load ptr, ptr %2, align 8, !tbaa !3
  call void @WebPSafeFree(ptr noundef %6)
  %7 = load ptr, ptr %3, align 8, !tbaa !3
  call void @llvm.lifetime.end.p0(i64 8, ptr %3) #6
  ret ptr %7
}

; Function Attrs: nounwind uwtable
define hidden void @MuxImageInit(ptr noundef %0) #0 {
  %2 = alloca ptr, align 8
  store ptr %0, ptr %2, align 8, !tbaa !44
  %3 = load ptr, ptr %2, align 8, !tbaa !44
  call void @llvm.memset.p0.i64(ptr align 8 %3, i8 0, i64 56, i1 false)
  ret void
}

; Function Attrs: nounwind uwtable
define hidden void @ChunkListDelete(ptr noundef %0) #0 {
  %2 = alloca ptr, align 8
  store ptr %0, ptr %2, align 8, !tbaa !33
  br label %3

3:                                                ; preds = %7, %1
  %4 = load ptr, ptr %2, align 8, !tbaa !33
  %5 = load ptr, ptr %4, align 8, !tbaa !3
  %6 = icmp ne ptr %5, null
  br i1 %6, label %7, label %12

7:                                                ; preds = %3
  %8 = load ptr, ptr %2, align 8, !tbaa !33
  %9 = load ptr, ptr %8, align 8, !tbaa !3
  %10 = call ptr @ChunkDelete(ptr noundef %9)
  %11 = load ptr, ptr %2, align 8, !tbaa !33
  store ptr %10, ptr %11, align 8, !tbaa !3
  br label %3, !llvm.loop !39

12:                                               ; preds = %3
  ret void
}

; Function Attrs: nounwind uwtable
define hidden ptr @MuxImageRelease(ptr noundef %0) #0 {
  %2 = alloca ptr, align 8
  %3 = alloca ptr, align 8
  %4 = alloca ptr, align 8
  %5 = alloca i32, align 4
  store ptr %0, ptr %3, align 8, !tbaa !44
  call void @llvm.lifetime.start.p0(i64 8, ptr %4) #6
  %6 = load ptr, ptr %3, align 8, !tbaa !44
  %7 = icmp eq ptr %6, null
  br i1 %7, label %8, label %9

8:                                                ; preds = %1
  store ptr null, ptr %2, align 8
  store i32 1, ptr %5, align 4
  br label %23

9:                                                ; preds = %1
  %10 = load ptr, ptr %3, align 8, !tbaa !44
  %11 = getelementptr inbounds nuw %struct.WebPMuxImage, ptr %10, i32 0, i32 0
  call void @ChunkListDelete(ptr noundef %11)
  %12 = load ptr, ptr %3, align 8, !tbaa !44
  %13 = getelementptr inbounds nuw %struct.WebPMuxImage, ptr %12, i32 0, i32 1
  call void @ChunkListDelete(ptr noundef %13)
  %14 = load ptr, ptr %3, align 8, !tbaa !44
  %15 = getelementptr inbounds nuw %struct.WebPMuxImage, ptr %14, i32 0, i32 2
  call void @ChunkListDelete(ptr noundef %15)
  %16 = load ptr, ptr %3, align 8, !tbaa !44
  %17 = getelementptr inbounds nuw %struct.WebPMuxImage, ptr %16, i32 0, i32 3
  call void @ChunkListDelete(ptr noundef %17)
  %18 = load ptr, ptr %3, align 8, !tbaa !44
  %19 = getelementptr inbounds nuw %struct.WebPMuxImage, ptr %18, i32 0, i32 8
  %20 = load ptr, ptr %19, align 8, !tbaa !46
  store ptr %20, ptr %4, align 8, !tbaa !44
  %21 = load ptr, ptr %3, align 8, !tbaa !44
  call void @MuxImageInit(ptr noundef %21)
  %22 = load ptr, ptr %4, align 8, !tbaa !44
  store ptr %22, ptr %2, align 8
  store i32 1, ptr %5, align 4
  br label %23

23:                                               ; preds = %9, %8
  call void @llvm.lifetime.end.p0(i64 8, ptr %4) #6
  %24 = load ptr, ptr %2, align 8
  ret ptr %24
}