; Function Attrs: nounwind uwtable
define hidden ptr @MuxImageRelease(ptr noundef captures(address_is_null) %0) local_unnamed_addr #3 {
  %2 = icmp eq ptr %0, null
  br i1 %2, label %41, label %3

3:                                                ; preds = %1
  %.pr.i = load ptr, ptr %0, align 8, !tbaa !28
  %.not3.i = icmp eq ptr %.pr.i, null
  br i1 %.not3.i, label %ChunkListDelete.exit, label %.lr.ph.i

.lr.ph.i:                                         ; preds = %3, %ChunkDelete.exit.i
  %4 = phi ptr [ %11, %ChunkDelete.exit.i ], [ %.pr.i, %3 ]
  %5 = getelementptr inbounds nuw i8, ptr %4, i64 4
  %6 = load i32, ptr %5, align 4, !tbaa !3
  %.not.i.i.i = icmp eq i32 %6, 0
  br i1 %.not.i.i.i, label %ChunkDelete.exit.i, label %7

7:                                                ; preds = %.lr.ph.i
  %8 = getelementptr inbounds nuw i8, ptr %4, i64 8
  %9 = load ptr, ptr %8, align 8, !tbaa !13
  tail call void @WebPFree(ptr noundef %9) #13
  br label %ChunkDelete.exit.i

ChunkDelete.exit.i:                               ; preds = %7, %.lr.ph.i
  %10 = getelementptr inbounds nuw i8, ptr %4, i64 24
  %11 = load ptr, ptr %10, align 8, !tbaa !14
  tail call void @llvm.memset.p0.i64(ptr noundef nonnull align 8 dereferenceable(32) %4, i8 0, i64 32, i1 false)
  tail call void @WebPSafeFree(ptr noundef nonnull %4) #13
  store ptr %11, ptr %0, align 8, !tbaa !28
  %.not.i = icmp eq ptr %11, null
  br i1 %.not.i, label %ChunkListDelete.exit, label %.lr.ph.i, !llvm.loop !34

ChunkListDelete.exit:                             ; preds = %ChunkDelete.exit.i, %3
  %12 = getelementptr inbounds nuw i8, ptr %0, i64 8
  %.pr.i10 = load ptr, ptr %12, align 8, !tbaa !28
  %.not3.i11 = icmp eq ptr %.pr.i10, null
  br i1 %.not3.i11, label %ChunkListDelete.exit16, label %.lr.ph.i12

.lr.ph.i12:                                       ; preds = %ChunkListDelete.exit, %ChunkDelete.exit.i14
  %13 = phi ptr [ %20, %ChunkDelete.exit.i14 ], [ %.pr.i10, %ChunkListDelete.exit ]
  %14 = getelementptr inbounds nuw i8, ptr %13, i64 4
  %15 = load i32, ptr %14, align 4, !tbaa !3
  %.not.i.i.i13 = icmp eq i32 %15, 0
  br i1 %.not.i.i.i13, label %ChunkDelete.exit.i14, label %16

16:                                               ; preds = %.lr.ph.i12
  %17 = getelementptr inbounds nuw i8, ptr %13, i64 8
  %18 = load ptr, ptr %17, align 8, !tbaa !13
  tail call void @WebPFree(ptr noundef %18) #13
  br label %ChunkDelete.exit.i14

ChunkDelete.exit.i14:                             ; preds = %16, %.lr.ph.i12
  %19 = getelementptr inbounds nuw i8, ptr %13, i64 24
  %20 = load ptr, ptr %19, align 8, !tbaa !14
  tail call void @llvm.memset.p0.i64(ptr noundef nonnull align 8 dereferenceable(32) %13, i8 0, i64 32, i1 false)
  tail call void @WebPSafeFree(ptr noundef nonnull %13) #13
  store ptr %20, ptr %12, align 8, !tbaa !28
  %.not.i15 = icmp eq ptr %20, null
  br i1 %.not.i15, label %ChunkListDelete.exit16, label %.lr.ph.i12, !llvm.loop !34

ChunkListDelete.exit16:                           ; preds = %ChunkDelete.exit.i14, %ChunkListDelete.exit
  %21 = getelementptr inbounds nuw i8, ptr %0, i64 16
  %.pr.i17 = load ptr, ptr %21, align 8, !tbaa !28
  %.not3.i18 = icmp eq ptr %.pr.i17, null
  br i1 %.not3.i18, label %ChunkListDelete.exit23, label %.lr.ph.i19

.lr.ph.i19:                                       ; preds = %ChunkListDelete.exit16, %ChunkDelete.exit.i21
  %22 = phi ptr [ %29, %ChunkDelete.exit.i21 ], [ %.pr.i17, %ChunkListDelete.exit16 ]
  %23 = getelementptr inbounds nuw i8, ptr %22, i64 4
  %24 = load i32, ptr %23, align 4, !tbaa !3
  %.not.i.i.i20 = icmp eq i32 %24, 0
  br i1 %.not.i.i.i20, label %ChunkDelete.exit.i21, label %25

25:                                               ; preds = %.lr.ph.i19
  %26 = getelementptr inbounds nuw i8, ptr %22, i64 8
  %27 = load ptr, ptr %26, align 8, !tbaa !13
  tail call void @WebPFree(ptr noundef %27) #13
  br label %ChunkDelete.exit.i21

ChunkDelete.exit.i21:                             ; preds = %25, %.lr.ph.i19
  %28 = getelementptr inbounds nuw i8, ptr %22, i64 24
  %29 = load ptr, ptr %28, align 8, !tbaa !14
  tail call void @llvm.memset.p0.i64(ptr noundef nonnull align 8 dereferenceable(32) %22, i8 0, i64 32, i1 false)
  tail call void @WebPSafeFree(ptr noundef nonnull %22) #13
  store ptr %29, ptr %21, align 8, !tbaa !28
  %.not.i22 = icmp eq ptr %29, null
  br i1 %.not.i22, label %ChunkListDelete.exit23, label %.lr.ph.i19, !llvm.loop !34

ChunkListDelete.exit23:                           ; preds = %ChunkDelete.exit.i21, %ChunkListDelete.exit16
  %30 = getelementptr inbounds nuw i8, ptr %0, i64 24
  %.pr.i24 = load ptr, ptr %30, align 8, !tbaa !28
  %.not3.i25 = icmp eq ptr %.pr.i24, null
  br i1 %.not3.i25, label %ChunkListDelete.exit30, label %.lr.ph.i26

.lr.ph.i26:                                       ; preds = %ChunkListDelete.exit23, %ChunkDelete.exit.i28
  %31 = phi ptr [ %38, %ChunkDelete.exit.i28 ], [ %.pr.i24, %ChunkListDelete.exit23 ]
  %32 = getelementptr inbounds nuw i8, ptr %31, i64 4
  %33 = load i32, ptr %32, align 4, !tbaa !3
  %.not.i.i.i27 = icmp eq i32 %33, 0
  br i1 %.not.i.i.i27, label %ChunkDelete.exit.i28, label %34

34:                                               ; preds = %.lr.ph.i26
  %35 = getelementptr inbounds nuw i8, ptr %31, i64 8
  %36 = load ptr, ptr %35, align 8, !tbaa !13
  tail call void @WebPFree(ptr noundef %36) #13
  br label %ChunkDelete.exit.i28

ChunkDelete.exit.i28:                             ; preds = %34, %.lr.ph.i26
  %37 = getelementptr inbounds nuw i8, ptr %31, i64 24
  %38 = load ptr, ptr %37, align 8, !tbaa !14
  tail call void @llvm.memset.p0.i64(ptr noundef nonnull align 8 dereferenceable(32) %31, i8 0, i64 32, i1 false)
  tail call void @WebPSafeFree(ptr noundef nonnull %31) #13
  store ptr %38, ptr %30, align 8, !tbaa !28
  %.not.i29 = icmp eq ptr %38, null
  br i1 %.not.i29, label %ChunkListDelete.exit30, label %.lr.ph.i26, !llvm.loop !34

ChunkListDelete.exit30:                           ; preds = %ChunkDelete.exit.i28, %ChunkListDelete.exit23
  %39 = getelementptr inbounds nuw i8, ptr %0, i64 48
  %40 = load ptr, ptr %39, align 8, !tbaa !39
  tail call void @llvm.memset.p0.i64(ptr noundef nonnull align 8 dereferenceable(56) %0, i8 0, i64 56, i1 false)
  br label %41

41:                                               ; preds = %1, %ChunkListDelete.exit30
  %.0 = phi ptr [ %40, %ChunkListDelete.exit30 ], [ null, %1 ]
  ret ptr %.0
}